target datalayout = "e-m:e-p270:32:32-p271:32:32-p272:64:64-i64:64-i128:128-f80:128-n8:16:32:64-S128"
target triple = "x86_64-pc-linux-gnu"

%struct.strbuf = type { i64, i64, ptr }
%struct.strvec = type { ptr, i64, i64 }
%struct.replay_ctx = type { %struct.strbuf, %struct.strbuf, ptr, i32, i8 }
%struct.replay_opts = type { i32, i32, i32, i32, i32, i32, i32, i32, i32, i32, i32, i32, i32, i32, i32, i32, i32, i32, ptr, i32, i32, ptr, ptr, %struct.strvec, ptr, %struct.object_id, i32, ptr, ptr }
%struct.object_id = type { [32 x i8], i32 }
%struct.todo_item = type { i32, ptr, i32, i32, i64, i64 }

@.str.76 = private unnamed_addr constant [7 x i8] c"revert\00", align 1
@.str.77 = private unnamed_addr constant [12 x i8] c"cherry-pick\00", align 1
@.str.100 = private unnamed_addr constant [7 x i8] c"rebase\00", align 1
@.str.208 = private unnamed_addr constant [19 x i8] c"unknown action: %d\00", align 1
@.str.244 = private unnamed_addr constant [18 x i8] c"GIT_REFLOG_ACTION\00", align 1

; Function Attrs: nounwind uwtable
define internal ptr @action_name(ptr noundef %0) #0 {
  %2 = alloca ptr, align 8
  %3 = alloca ptr, align 8
  store ptr %0, ptr %3, align 8, !tbaa !13
  %4 = load ptr, ptr %3, align 8, !tbaa !13
  %5 = getelementptr inbounds nuw %struct.replay_opts, ptr %4, i32 0, i32 0
  %6 = load i32, ptr %5, align 8, !tbaa !31
  switch i32 %6, label %10 [
    i32 0, label %7
    i32 1, label %8
    i32 2, label %9
  ]

7:                                                ; preds = %1
  store ptr @.str.76, ptr %2, align 8
  br label %15

8:                                                ; preds = %1
  store ptr @.str.77, ptr %2, align 8
  br label %15

9:                                                ; preds = %1
  store ptr @.str.100, ptr %2, align 8
  br label %15

10:                                               ; preds = %1
  %11 = call ptr @_(ptr noundef @.str.208)
  %12 = load ptr, ptr %3, align 8, !tbaa !13
  %13 = getelementptr inbounds nuw %struct.replay_opts, ptr %12, i32 0, i32 0
  %14 = load i32, ptr %13, align 8, !tbaa !31
  call void (ptr, ...) @die(ptr noundef %11, i32 noundef %14) #13
  unreachable

15:                                               ; preds = %9, %8, %7
  %16 = load ptr, ptr %2, align 8
  ret ptr %16
}

; Function Attrs: nounwind uwtable
define internal ptr @sequencer_reflog_action(ptr noundef %0) #0 {
  %2 = alloca ptr, align 8
  store ptr %0, ptr %2, align 8, !tbaa !13
  %3 = load ptr, ptr %2, align 8, !tbaa !13
  %4 = getelementptr inbounds nuw %struct.replay_opts, ptr %3, i32 0, i32 24
  %5 = load ptr, ptr %4, align 8, !tbaa !34
  %6 = icmp ne ptr %5, null
  br i1 %6, label %27, label %7

7:                                                ; preds = %1
  %8 = call ptr @getenv(ptr noundef @.str.244) #11
  %9 = load ptr, ptr %2, align 8, !tbaa !13
  %10 = getelementptr inbounds nuw %struct.replay_opts, ptr %9, i32 0, i32 24
  store ptr %8, ptr %10, align 8, !tbaa !34
  %11 = load ptr, ptr %2, align 8, !tbaa !13
  %12 = getelementptr inbounds nuw %struct.replay_opts, ptr %11, i32 0, i32 24
  %13 = load ptr, ptr %12, align 8, !tbaa !34
  %14 = icmp ne ptr %13, null
  br i1 %14, label %15, label %19

15:                                               ; preds = %7
  %16 = load ptr, ptr %2, align 8, !tbaa !13
  %17 = getelementptr inbounds nuw %struct.replay_opts, ptr %16, i32 0, i32 24
  %18 = load ptr, ptr %17, align 8, !tbaa !34
  br label %22

19:                                               ; preds = %7
  %20 = load ptr, ptr %2, align 8, !tbaa !13
  %21 = call ptr @action_name(ptr noundef %20)
  br label %22

22:                                               ; preds = %19, %15
  %23 = phi ptr [ %18, %15 ], [ %21, %19 ]
  %24 = call ptr @xstrdup(ptr noundef %23)
  %25 = load ptr, ptr %2, align 8, !tbaa !13
  %26 = getelementptr inbounds nuw %struct.replay_opts, ptr %25, i32 0, i32 24
  store ptr %24, ptr %26, align 8, !tbaa !34
  br label %27

27:                                               ; preds = %22, %1
  %28 = load ptr, ptr %2, align 8, !tbaa !13
  %29 = getelementptr inbounds nuw %struct.replay_opts, ptr %28, i32 0, i32 24
  %30 = load ptr, ptr %29, align 8, !tbaa !34
  ret ptr %30
}

; Function Attrs: nounwind uwtable
define internal i32 @single_pick(ptr noundef %0, ptr noundef %1, ptr noundef %2) #0 {
  %4 = alloca ptr, align 8
  %5 = alloca ptr, align 8
  %6 = alloca ptr, align 8
  %7 = alloca i32, align 4
  %8 = alloca %struct.todo_item, align 8
  store ptr %0, ptr %4, align 8, !tbaa !9
  store ptr %1, ptr %5, align 8, !tbaa !82
  store ptr %2, ptr %6, align 8, !tbaa !13
  call void @llvm.lifetime.start.p0(i64 4, ptr %7) #11
  call void @llvm.lifetime.start.p0(i64 40, ptr %8) #11
  %9 = load ptr, ptr %6, align 8, !tbaa !13
  %10 = getelementptr inbounds nuw %struct.replay_opts, ptr %9, i32 0, i32 0
  %11 = load i32, ptr %10, align 8, !tbaa !31
  %12 = icmp eq i32 %11, 1
  %13 = select i1 %12, i32 0, i32 1
  %14 = getelementptr inbounds nuw %struct.todo_item, ptr %8, i32 0, i32 0
  store i32 %13, ptr %14, align 8, !tbaa !153
  %15 = load ptr, ptr %5, align 8, !tbaa !82
  %16 = getelementptr inbounds nuw %struct.todo_item, ptr %8, i32 0, i32 1
  store ptr %15, ptr %16, align 8, !tbaa !155
  %17 = load ptr, ptr %6, align 8, !tbaa !13
  %18 = call ptr @sequencer_reflog_action(ptr noundef %17)
  %19 = load ptr, ptr %6, align 8, !tbaa !13
  %20 = getelementptr inbounds nuw %struct.replay_opts, ptr %19, i32 0, i32 28
  %21 = load ptr, ptr %20, align 8, !tbaa !33
  %22 = getelementptr inbounds nuw %struct.replay_ctx, ptr %21, i32 0, i32 2
  store ptr %18, ptr %22, align 8, !tbaa !192
  %23 = load ptr, ptr %4, align 8, !tbaa !9
  %24 = load ptr, ptr %6, align 8, !tbaa !13
  %25 = call i32 @do_pick_commit(ptr noundef %23, ptr noundef %8, ptr noundef %24, i32 noundef 0, ptr noundef %7)
  call void @llvm.lifetime.end.p0(i64 40, ptr %8) #11
  call void @llvm.lifetime.end.p0(i64 4, ptr %7) #11
  ret i32 %25
}