; Function Attrs: nounwind uwtable
define internal fastcc i32 @single_pick(ptr noundef %0, ptr noundef nonnull %1, ptr noundef captures(none) %2) unnamed_addr #0 {
  %4 = alloca i32, align 4
  %5 = alloca %struct.todo_item, align 8
  call void @llvm.lifetime.start.p0(i64 4, ptr nonnull %4) #20
  call void @llvm.lifetime.start.p0(i64 40, ptr nonnull %5) #20
  %6 = load i32, ptr %2, align 8, !tbaa !25
  %7 = icmp ne i32 %6, 1
  %8 = zext i1 %7 to i32
  store i32 %8, ptr %5, align 8, !tbaa !124
  %9 = getelementptr inbounds nuw i8, ptr %5, i64 8
  store ptr %1, ptr %9, align 8, !tbaa !125
  %10 = getelementptr inbounds nuw i8, ptr %2, i64 128
  %11 = load ptr, ptr %10, align 8, !tbaa !28
  %.not.i = icmp eq ptr %11, null
  br i1 %.not.i, label %12, label %sequencer_reflog_action.exit

12:                                               ; preds = %3
  %13 = tail call ptr @getenv(ptr noundef nonnull @.str.244) #20
  store ptr %13, ptr %10, align 8, !tbaa !28
  %.not7.i = icmp eq ptr %13, null
  br i1 %.not7.i, label %14, label %action_name.exit.i

14:                                               ; preds = %12
  %15 = icmp ult i32 %6, 3
  br i1 %15, label %switch.lookup, label %16

16:                                               ; preds = %14
  %17 = tail call fastcc ptr @_(ptr noundef nonnull @.str.208)
  %18 = load i32, ptr %2, align 8, !tbaa !25
  tail call void (ptr, ...) @die(ptr noundef %17, i32 noundef %18) #22
  unreachable

switch.lookup:                                    ; preds = %14
  %19 = zext nneg i32 %6 to i64
  %switch.gep = getelementptr inbounds nuw [3 x ptr], ptr @switch.table.fast_forward_to, i64 0, i64 %19
  %switch.load = load ptr, ptr %switch.gep, align 8
  br label %action_name.exit.i

action_name.exit.i:                               ; preds = %switch.lookup, %12
  %20 = phi ptr [ %13, %12 ], [ %switch.load, %switch.lookup ]
  %21 = tail call ptr @xstrdup(ptr noundef nonnull %20) #20
  store ptr %21, ptr %10, align 8, !tbaa !28
  br label %sequencer_reflog_action.exit

sequencer_reflog_action.exit:                     ; preds = %3, %action_name.exit.i
  %22 = phi ptr [ %21, %action_name.exit.i ], [ %11, %3 ]
  %23 = getelementptr inbounds nuw i8, ptr %2, i64 184
  %24 = load ptr, ptr %23, align 8, !tbaa !27
  %25 = getelementptr inbounds nuw i8, ptr %24, i64 48
  store ptr %22, ptr %25, align 8, !tbaa !176
  %26 = call fastcc i32 @do_pick_commit(ptr noundef %0, ptr noundef nonnull %5, ptr noundef nonnull %2, i32 noundef 0, ptr noundef %4)
  call void @llvm.lifetime.end.p0(i64 40, ptr nonnull %5) #20
  call void @llvm.lifetime.end.p0(i64 4, ptr nonnull %4) #20
  ret i32 %26
}